target datalayout = "e-m:e-p270:32:32-p271:32:32-p272:64:64-i64:64-i128:128-f80:128-n8:16:32:64-S128"
target triple = "x86_64-pc-linux-gnu"

%struct.stat = type { i64, i64, i64, i32, i32, i32, i32, i64, i64, i64, i64, %struct.timespec, %struct.timespec, %struct.timespec, [3 x i64] }
%struct.timespec = type { i64, i64 }

@.str.18 = private unnamed_addr constant [13 x i8] c"dbcommands.c\00", align 1
@.str.123 = private unnamed_addr constant [11 x i8] c"pg_tblspc/\00", align 1
@.str.124 = private unnamed_addr constant [43 x i8] c"requested to created invalid directory: %s\00", align 1
@__func__.recovery_create_dbdir = private unnamed_addr constant [22 x i8] c"recovery_create_dbdir\00", align 1
@reachedConsistency = external global i8, align 1
@allow_in_place_tablespaces = external global i8, align 1
@.str.125 = private unnamed_addr constant [23 x i8] c"missing directory \22%s\22\00", align 1
@.str.126 = private unnamed_addr constant [31 x i8] c"creating missing directory: %s\00", align 1
@pg_dir_create_mode = external global i32, align 4
@.str.127 = private unnamed_addr constant [44 x i8] c"could not create missing directory \22%s\22: %m\00", align 1

; Function Attrs: nounwind uwtable
define internal void @recovery_create_dbdir(ptr noundef %0, i1 noundef zeroext %1) #0 {
  %3 = alloca ptr, align 8
  %4 = alloca i8, align 1
  %5 = alloca %struct.stat, align 8
  %6 = alloca i32, align 4
  store ptr %0, ptr %3, align 8
  %7 = zext i1 %1 to i8
  store i8 %7, ptr %4, align 1
  call void @llvm.lifetime.start.p0(i64 144, ptr %5) #14
  %8 = load ptr, ptr %3, align 8
  %9 = call i32 @stat(ptr noundef %8, ptr noundef %5) #14
  %10 = icmp eq i32 %9, 0
  br i1 %10, label %11, label %12

11:                                               ; preds = %2
  store i32 1, ptr %6, align 4
  br label %104

12:                                               ; preds = %2
  %13 = load i8, ptr %4, align 1, !range !4, !noundef !5
  %14 = trunc i8 %13 to i1
  br i1 %14, label %15, label %31

15:                                               ; preds = %12
  %16 = load ptr, ptr %3, align 8
  %17 = call ptr @strstr(ptr noundef %16, ptr noundef @.str.123) #15
  %18 = icmp eq ptr %17, null
  br i1 %18, label %19, label %31

19:                                               ; preds = %15
  br label %20

20:                                               ; preds = %19
  br i1 true, label %21, label %23

21:                                               ; preds = %20
  %22 = call zeroext i1 @errstart_cold(i32 noundef 23, ptr noundef null) #17
  br i1 %22, label %25, label %28

23:                                               ; preds = %20
  %24 = call zeroext i1 @errstart(i32 noundef 23, ptr noundef null)
  br i1 %24, label %25, label %28

25:                                               ; preds = %23, %21
  %26 = load ptr, ptr %3, align 8
  %27 = call i32 (ptr, ...) @errmsg_internal(ptr noundef @.str.124, ptr noundef %26)
  call void @errfinish(ptr noundef @.str.18, i32 noundef 3264, ptr noundef @__func__.recovery_create_dbdir)
  br label %28

28:                                               ; preds = %25, %23, %21
  unreachable

29:                                               ; No predecessors!
  br label %30

30:                                               ; preds = %29
  br label %31

31:                                               ; preds = %30, %15, %12
  %32 = load i8, ptr @reachedConsistency, align 1, !range !4, !noundef !5
  %33 = trunc i8 %32 to i1
  br i1 %33, label %34, label %49

34:                                               ; preds = %31
  %35 = load i8, ptr @allow_in_place_tablespaces, align 1, !range !4, !noundef !5
  %36 = trunc i8 %35 to i1
  br i1 %36, label %49, label %37

37:                                               ; preds = %34
  br label %38

38:                                               ; preds = %37
  br i1 true, label %39, label %41

39:                                               ; preds = %38
  %40 = call zeroext i1 @errstart_cold(i32 noundef 23, ptr noundef null) #17
  br i1 %40, label %43, label %46

41:                                               ; preds = %38
  %42 = call zeroext i1 @errstart(i32 noundef 23, ptr noundef null)
  br i1 %42, label %43, label %46

43:                                               ; preds = %41, %39
  %44 = load ptr, ptr %3, align 8
  %45 = call i32 (ptr, ...) @errmsg(ptr noundef @.str.125, ptr noundef %44)
  call void @errfinish(ptr noundef @.str.18, i32 noundef 3268, ptr noundef @__func__.recovery_create_dbdir)
  br label %46

46:                                               ; preds = %43, %41, %39
  unreachable

47:                                               ; No predecessors!
  br label %48

48:                                               ; preds = %47
  br label %49

49:                                               ; preds = %48, %34, %31
  br label %50

50:                                               ; preds = %49
  %51 = load i8, ptr @reachedConsistency, align 1, !range !4, !noundef !5
  %52 = trunc i8 %51 to i1
  %53 = select i1 %52, i32 19, i32 14
  %54 = call i1 @llvm.is.constant.i32(i32 %53)
  br i1 %54, label %55, label %65

55:                                               ; preds = %50
  %56 = load i8, ptr @reachedConsistency, align 1, !range !4, !noundef !5
  %57 = trunc i8 %56 to i1
  %58 = select i1 %57, i32 19, i32 14
  %59 = icmp sge i32 %58, 21
  br i1 %59, label %60, label %65

60:                                               ; preds = %55
  %61 = load i8, ptr @reachedConsistency, align 1, !range !4, !noundef !5
  %62 = trunc i8 %61 to i1
  %63 = select i1 %62, i32 19, i32 14
  %64 = call zeroext i1 @errstart_cold(i32 noundef %63, ptr noundef null) #17
  br i1 %64, label %70, label %73

65:                                               ; preds = %55, %50
  %66 = load i8, ptr @reachedConsistency, align 1, !range !4, !noundef !5
  %67 = trunc i8 %66 to i1
  %68 = select i1 %67, i32 19, i32 14
  %69 = call zeroext i1 @errstart(i32 noundef %68, ptr noundef null)
  br i1 %69, label %70, label %73

70:                                               ; preds = %65, %60
  %71 = load ptr, ptr %3, align 8
  %72 = call i32 (ptr, ...) @errmsg_internal(ptr noundef @.str.126, ptr noundef %71)
  call void @errfinish(ptr noundef @.str.18, i32 noundef 3271, ptr noundef @__func__.recovery_create_dbdir)
  br label %73

73:                                               ; preds = %70, %65, %60
  %74 = load i8, ptr @reachedConsistency, align 1, !range !4, !noundef !5
  %75 = trunc i8 %74 to i1
  %76 = select i1 %75, i32 19, i32 14
  %77 = call i1 @llvm.is.constant.i32(i32 %76)
  br i1 %77, label %78, label %84

78:                                               ; preds = %73
  %79 = load i8, ptr @reachedConsistency, align 1, !range !4, !noundef !5
  %80 = trunc i8 %79 to i1
  %81 = select i1 %80, i32 19, i32 14
  %82 = icmp sge i32 %81, 21
  br i1 %82, label %83, label %84

83:                                               ; preds = %78
  unreachable

84:                                               ; preds = %78, %73
  br label %85

85:                                               ; preds = %84
  br label %86

86:                                               ; preds = %85
  %87 = load ptr, ptr %3, align 8
  %88 = load i32, ptr @pg_dir_create_mode, align 4
  %89 = call i32 @pg_mkdir_p(ptr noundef %87, i32 noundef %88)
  %90 = icmp ne i32 %89, 0
  br i1 %90, label %91, label %103

91:                                               ; preds = %86
  br label %92

92:                                               ; preds = %91
  br i1 true, label %93, label %95

93:                                               ; preds = %92
  %94 = call zeroext i1 @errstart_cold(i32 noundef 23, ptr noundef null) #17
  br i1 %94, label %97, label %100

95:                                               ; preds = %92
  %96 = call zeroext i1 @errstart(i32 noundef 23, ptr noundef null)
  br i1 %96, label %97, label %100

97:                                               ; preds = %95, %93
  %98 = load ptr, ptr %3, align 8
  %99 = call i32 (ptr, ...) @errmsg(ptr noundef @.str.127, ptr noundef %98)
  call void @errfinish(ptr noundef @.str.18, i32 noundef 3275, ptr noundef @__func__.recovery_create_dbdir)
  br label %100

100:                                              ; preds = %97, %95, %93
  unreachable

101:                                              ; No predecessors!
  br label %102

102:                                              ; preds = %101
  br label %103

103:                                              ; preds = %102, %86
  store i32 0, ptr %6, align 4
  br label %104

104:                                              ; preds = %103, %11
  call void @llvm.lifetime.end.p0(i64 144, ptr %5) #14
  %105 = load i32, ptr %6, align 4
  switch i32 %105, label %107 [
    i32 0, label %106
    i32 1, label %106
  ]

106:                                              ; preds = %104, %104
  ret void

107:                                              ; preds = %104
  unreachable
}