; Function Attrs: nounwind uwtable
define internal fastcc void @recovery_create_dbdir(ptr noundef %0, i1 noundef zeroext %1) unnamed_addr #0 {
  %3 = alloca %struct.stat, align 8
  call void @llvm.lifetime.start.p0(i64 144, ptr nonnull %3) #16
  %4 = call i32 @stat(ptr noundef %0, ptr noundef nonnull %3) #16
  %5 = icmp eq i32 %4, 0
  br i1 %5, label %33, label %6

6:                                                ; preds = %2
  br i1 %1, label %7, label %13

7:                                                ; preds = %6
  %8 = tail call ptr @strstr(ptr noundef nonnull dereferenceable(1) %0, ptr noundef nonnull dereferenceable(1) @.str.123) #17
  %9 = icmp eq ptr %8, null
  br i1 %9, label %10, label %13

10:                                               ; preds = %7
  %11 = tail call zeroext i1 @errstart_cold(i32 noundef 23, ptr noundef null) #19
  tail call void @llvm.assume(i1 %11)
  %12 = tail call i32 (ptr, ...) @errmsg_internal(ptr noundef nonnull @.str.124, ptr noundef nonnull %0) #16
  tail call void @errfinish(ptr noundef nonnull @.str.18, i32 noundef 3264, ptr noundef nonnull @__func__.recovery_create_dbdir) #16
  unreachable

13:                                               ; preds = %7, %6
  %14 = load i8, ptr @reachedConsistency, align 1, !range !4, !noundef !5
  %15 = trunc nuw i8 %14 to i1
  br i1 %15, label %16, label %22

16:                                               ; preds = %13
  %17 = load i8, ptr @allow_in_place_tablespaces, align 1, !range !4, !noundef !5
  %18 = trunc nuw i8 %17 to i1
  br i1 %18, label %22, label %19

19:                                               ; preds = %16
  %20 = tail call zeroext i1 @errstart_cold(i32 noundef 23, ptr noundef null) #19
  tail call void @llvm.assume(i1 %20)
  %21 = tail call i32 (ptr, ...) @errmsg(ptr noundef nonnull @.str.125, ptr noundef %0) #16
  tail call void @errfinish(ptr noundef nonnull @.str.18, i32 noundef 3268, ptr noundef nonnull @__func__.recovery_create_dbdir) #16
  unreachable

22:                                               ; preds = %13, %16
  %23 = phi i32 [ 14, %13 ], [ 19, %16 ]
  %24 = tail call zeroext i1 @errstart(i32 noundef %23, ptr noundef null) #16
  br i1 %24, label %25, label %27

25:                                               ; preds = %22
  %26 = tail call i32 (ptr, ...) @errmsg_internal(ptr noundef nonnull @.str.126, ptr noundef %0) #16
  tail call void @errfinish(ptr noundef nonnull @.str.18, i32 noundef 3271, ptr noundef nonnull @__func__.recovery_create_dbdir) #16
  br label %27

27:                                               ; preds = %25, %22
  %28 = load i32, ptr @pg_dir_create_mode, align 4
  %29 = tail call i32 @pg_mkdir_p(ptr noundef %0, i32 noundef %28) #16
  %.not = icmp eq i32 %29, 0
  br i1 %.not, label %33, label %30

30:                                               ; preds = %27
  %31 = tail call zeroext i1 @errstart_cold(i32 noundef 23, ptr noundef null) #19
  tail call void @llvm.assume(i1 %31)
  %32 = tail call i32 (ptr, ...) @errmsg(ptr noundef nonnull @.str.127, ptr noundef %0) #16
  tail call void @errfinish(ptr noundef nonnull @.str.18, i32 noundef 3275, ptr noundef nonnull @__func__.recovery_create_dbdir) #16
  unreachable

33:                                               ; preds = %27, %2
  call void @llvm.lifetime.end.p0(i64 144, ptr nonnull %3) #16
  ret void
}